; Function Attrs: mustprogress uwtable
define hidden void @_ZN2dd11pdd_manager6mk_valEj(ptr dead_on_unwind noalias writable writeonly sret(%"class.dd::pdd") align 8 captures(none) %0, ptr noundef nonnull align 8 dereferenceable(952) %1, i32 noundef %2) local_unnamed_addr #3 align 2 personality ptr @__gxx_personality_v0 {
  %4 = alloca %class.rational, align 8
  call void @llvm.lifetime.start.p0(i64 32, ptr nonnull %4) #29
  store i32 0, ptr %4, align 8, !tbaa !44
  %5 = getelementptr inbounds nuw i8, ptr %4, i64 4
  store i8 0, ptr %5, align 4
  %6 = getelementptr inbounds nuw i8, ptr %4, i64 8
  store ptr null, ptr %6, align 8, !tbaa !45
  %7 = getelementptr inbounds nuw i8, ptr %4, i64 16
  store i32 1, ptr %7, align 8, !tbaa !44
  %8 = getelementptr inbounds nuw i8, ptr %4, i64 20
  store i8 0, ptr %8, align 4
  %9 = getelementptr inbounds nuw i8, ptr %4, i64 24
  store ptr null, ptr %9, align 8, !tbaa !45
  %10 = load ptr, ptr @_ZN8rational13g_mpq_managerE, align 8, !tbaa !85
  %11 = icmp sgt i32 %2, -1
  br i1 %11, label %12, label %13

12:                                               ; preds = %3
  store i32 %2, ptr %4, align 8, !tbaa !44
  store i8 0, ptr %5, align 4
  br label %_ZN8rationalC2Ej.exit

13:                                               ; preds = %3
  %14 = zext i32 %2 to i64
  call void @_ZN11mpz_managerILb1EE11set_big_i64ER3mpzl(ptr noundef nonnull align 8 dereferenceable(728) %10, ptr noundef nonnull align 8 dereferenceable(32) %4, i64 noundef %14)
  br label %_ZN8rationalC2Ej.exit

_ZN8rationalC2Ej.exit:                            ; preds = %12, %13
  call void @_ZN11mpz_managerILb1EE3delEPS0_R3mpz(ptr noundef nonnull align 8 dereferenceable(728) %10, ptr noundef nonnull align 8 dereferenceable(16) %7)
  store i32 1, ptr %7, align 8, !tbaa !44
  %15 = load i8, ptr %8, align 4
  %16 = and i8 %15, -2
  store i8 %16, ptr %8, align 4
  call void @llvm.experimental.noalias.scope.decl(metadata !130)
  %17 = invoke noundef i32 @_ZN2dd11pdd_manager7imk_valERK8rational(ptr noundef nonnull align 8 dereferenceable(952) %1, ptr noundef nonnull align 8 dereferenceable(32) %4)
          to label %.noexc unwind label %33

.noexc:                                           ; preds = %_ZN8rationalC2Ej.exit
  store i32 %17, ptr %0, align 8, !tbaa !119, !alias.scope !130
  %18 = getelementptr inbounds nuw i8, ptr %0, i64 8
  store ptr %1, ptr %18, align 8, !tbaa !122, !alias.scope !130
  %19 = load ptr, ptr %1, align 8, !tbaa !91, !noalias !130
  %20 = zext i32 %17 to i64
  %21 = getelementptr inbounds nuw %"struct.dd::pdd_manager::node", ptr %19, i64 %20
  %22 = load i32, ptr %21, align 4, !noalias !130
  %23 = and i32 %22, 1023
  %.not.i.i.i = icmp eq i32 %23, 1023
  br i1 %.not.i.i.i, label %_ZN2dd11pdd_manager6mk_valERK8rational.exit, label %24

24:                                               ; preds = %.noexc
  %25 = add i32 %22, 1
  %26 = and i32 %25, 1023
  %27 = and i32 %22, -1024
  %28 = or disjoint i32 %26, %27
  store i32 %28, ptr %21, align 4, !noalias !130
  br label %_ZN2dd11pdd_manager6mk_valERK8rational.exit

_ZN2dd11pdd_manager6mk_valERK8rational.exit:      ; preds = %24, %.noexc
  %29 = load ptr, ptr @_ZN8rational13g_mpq_managerE, align 8, !tbaa !85
  invoke void @_ZN11mpz_managerILb1EE3delEPS0_R3mpz(ptr noundef %29, ptr noundef nonnull align 8 dereferenceable(32) %4)
          to label %.noexc.i unwind label %30

.noexc.i:                                         ; preds = %_ZN2dd11pdd_manager6mk_valERK8rational.exit
  invoke void @_ZN11mpz_managerILb1EE3delEPS0_R3mpz(ptr noundef %29, ptr noundef nonnull align 8 dereferenceable(16) %7)
          to label %_ZN8rationalD2Ev.exit unwind label %30

30:                                               ; preds = %.noexc.i, %_ZN2dd11pdd_manager6mk_valERK8rational.exit
  %31 = landingpad { ptr, i32 }
          catch ptr null
  %32 = extractvalue { ptr, i32 } %31, 0
  call void @__clang_call_terminate(ptr %32) #30
  unreachable

_ZN8rationalD2Ev.exit:                            ; preds = %.noexc.i
  call void @llvm.lifetime.end.p0(i64 32, ptr nonnull %4) #29
  ret void

33:                                               ; preds = %_ZN8rationalC2Ej.exit
  %34 = landingpad { ptr, i32 }
          cleanup
  call void @_ZN8rationalD2Ev(ptr noundef nonnull align 8 dereferenceable(32) %4) #29
  call void @llvm.lifetime.end.p0(i64 32, ptr nonnull %4) #29
  resume { ptr, i32 } %34
}